target datalayout = "e-m:e-p270:32:32-p271:32:32-p272:64:64-i64:64-i128:128-f80:128-n8:16:32:64-S128"
target triple = "x86_64-pc-linux-gnu"

%"class.std::__1::pmr::unsynchronized_pool_resource::__adhoc_pool" = type { ptr }
%"struct.std::__1::pmr::unsynchronized_pool_resource::__adhoc_pool::__chunk_footer" = type { ptr, ptr, i64 }

; Function Attrs: mustprogress allocsize(1) uwtable
define linkonce_odr hidden noundef nonnull ptr @_ZNSt3__13pmr15memory_resource8allocateB8ne210000Emm(ptr noundef nonnull align 8 dereferenceable(8) %0, i64 noundef %1, i64 noundef %2) #7 comdat align 2 {
  %4 = alloca ptr, align 8
  %5 = alloca i64, align 8
  %6 = alloca i64, align 8
  store ptr %0, ptr %4, align 8, !tbaa !4
  store i64 %1, ptr %5, align 8, !tbaa !30
  store i64 %2, ptr %6, align 8, !tbaa !30
  %7 = load ptr, ptr %4, align 8
  %8 = load i64, ptr %5, align 8, !tbaa !30
  %9 = load i64, ptr %6, align 8, !tbaa !30
  %10 = load ptr, ptr %7, align 8, !tbaa !31
  %11 = getelementptr inbounds ptr, ptr %10, i64 2
  %12 = load ptr, ptr %11, align 8
  %13 = call noundef ptr %12(ptr noundef nonnull align 8 dereferenceable(8) %7, i64 noundef %8, i64 noundef %9)
  ret ptr %13
}

; Function Attrs: mustprogress nounwind uwtable
define internal noundef i64 @_ZNSt3__13pmrL7roundupEmm(i64 noundef %0, i64 noundef %1) #0 {
  %3 = alloca i64, align 8
  %4 = alloca i64, align 8
  %5 = alloca i64, align 8
  store i64 %0, ptr %3, align 8, !tbaa !30
  store i64 %1, ptr %4, align 8, !tbaa !30
  call void @llvm.lifetime.start.p0(i64 8, ptr %5) #3
  %6 = load i64, ptr %4, align 8, !tbaa !30
  %7 = sub i64 %6, 1
  store i64 %7, ptr %5, align 8, !tbaa !30
  %8 = load i64, ptr %3, align 8, !tbaa !30
  %9 = load i64, ptr %5, align 8, !tbaa !30
  %10 = add i64 %8, %9
  %11 = load i64, ptr %5, align 8, !tbaa !30
  %12 = xor i64 %11, -1
  %13 = and i64 %10, %12
  call void @llvm.lifetime.end.p0(i64 8, ptr %5) #3
  ret i64 %13
}

; Function Attrs: mustprogress uwtable
define dso_local noundef ptr @_ZNSt3__13pmr28unsynchronized_pool_resource12__adhoc_pool13__do_allocateEPNS0_15memory_resourceEmm(ptr noundef nonnull align 8 dereferenceable(8) %0, ptr noundef %1, i64 noundef %2, i64 noundef %3) #5 align 2 {
  %5 = alloca ptr, align 8
  %6 = alloca ptr, align 8
  %7 = alloca i64, align 8
  %8 = alloca i64, align 8
  %9 = alloca i64, align 8
  %10 = alloca i64, align 8
  %11 = alloca i64, align 8
  %12 = alloca ptr, align 8
  %13 = alloca ptr, align 8
  store ptr %0, ptr %5, align 8, !tbaa !15
  store ptr %1, ptr %6, align 8, !tbaa !4
  store i64 %2, ptr %7, align 8, !tbaa !30
  store i64 %3, ptr %8, align 8, !tbaa !30
  %14 = load ptr, ptr %5, align 8
  call void @llvm.lifetime.start.p0(i64 8, ptr %9) #3
  store i64 24, ptr %9, align 8, !tbaa !30
  call void @llvm.lifetime.start.p0(i64 8, ptr %10) #3
  store i64 8, ptr %10, align 8, !tbaa !30
  %15 = load i64, ptr %8, align 8, !tbaa !30
  %16 = icmp ult i64 %15, 8
  br i1 %16, label %17, label %18

17:                                               ; preds = %4
  store i64 8, ptr %8, align 8, !tbaa !30
  br label %18

18:                                               ; preds = %17, %4
  call void @llvm.lifetime.start.p0(i64 8, ptr %11) #3
  %19 = load i64, ptr %7, align 8, !tbaa !30
  %20 = call noundef i64 @_ZNSt3__13pmrL7roundupEmm(i64 noundef %19, i64 noundef 8)
  %21 = add i64 %20, 24
  store i64 %21, ptr %11, align 8, !tbaa !30
  call void @llvm.lifetime.start.p0(i64 8, ptr %12) #3
  %22 = load ptr, ptr %6, align 8, !tbaa !4
  %23 = load i64, ptr %11, align 8, !tbaa !30
  %24 = load i64, ptr %8, align 8, !tbaa !30
  %25 = call noundef nonnull ptr @_ZNSt3__13pmr15memory_resource8allocateB8ne210000Emm(ptr noundef nonnull align 8 dereferenceable(8) %22, i64 noundef %23, i64 noundef %24) #21
  call void @llvm.assume(i1 true) [ "align"(ptr %25, i64 %24) ]
  store ptr %25, ptr %12, align 8, !tbaa !29
  call void @llvm.lifetime.start.p0(i64 8, ptr %13) #3
  %26 = load ptr, ptr %12, align 8, !tbaa !29
  %27 = load i64, ptr %11, align 8, !tbaa !30
  %28 = getelementptr inbounds nuw i8, ptr %26, i64 %27
  %29 = getelementptr inbounds i8, ptr %28, i64 -24
  store ptr %29, ptr %13, align 8, !tbaa !24
  %30 = getelementptr inbounds nuw %"class.std::__1::pmr::unsynchronized_pool_resource::__adhoc_pool", ptr %14, i32 0, i32 0
  %31 = load ptr, ptr %30, align 8, !tbaa !17
  %32 = load ptr, ptr %13, align 8, !tbaa !24
  %33 = getelementptr inbounds nuw %"struct.std::__1::pmr::unsynchronized_pool_resource::__adhoc_pool::__chunk_footer", ptr %32, i32 0, i32 0
  store ptr %31, ptr %33, align 8, !tbaa !20
  %34 = load ptr, ptr %12, align 8, !tbaa !29
  %35 = load ptr, ptr %13, align 8, !tbaa !24
  %36 = getelementptr inbounds nuw %"struct.std::__1::pmr::unsynchronized_pool_resource::__adhoc_pool::__chunk_footer", ptr %35, i32 0, i32 1
  store ptr %34, ptr %36, align 8, !tbaa !25
  %37 = load i64, ptr %8, align 8, !tbaa !30
  %38 = load ptr, ptr %13, align 8, !tbaa !24
  %39 = getelementptr inbounds nuw %"struct.std::__1::pmr::unsynchronized_pool_resource::__adhoc_pool::__chunk_footer", ptr %38, i32 0, i32 2
  store i64 %37, ptr %39, align 8, !tbaa !26
  %40 = load ptr, ptr %13, align 8, !tbaa !24
  %41 = getelementptr inbounds nuw %"class.std::__1::pmr::unsynchronized_pool_resource::__adhoc_pool", ptr %14, i32 0, i32 0
  store ptr %40, ptr %41, align 8, !tbaa !17
  %42 = load ptr, ptr %12, align 8, !tbaa !29
  call void @llvm.lifetime.end.p0(i64 8, ptr %13) #3
  call void @llvm.lifetime.end.p0(i64 8, ptr %12) #3
  call void @llvm.lifetime.end.p0(i64 8, ptr %11) #3
  call void @llvm.lifetime.end.p0(i64 8, ptr %10) #3
  call void @llvm.lifetime.end.p0(i64 8, ptr %9) #3
  ret ptr %42
}