; Function Attrs: mustprogress uwtable
define dso_local noundef nonnull ptr @_ZNSt3__13pmr28unsynchronized_pool_resource12__adhoc_pool13__do_allocateEPNS0_15memory_resourceEmm(ptr noundef nonnull align 8 captures(none) dereferenceable(8) %0, ptr noundef %1, i64 noundef %2, i64 noundef %3) local_unnamed_addr #4 align 2 {
  %spec.store.select = tail call i64 @llvm.umax.i64(i64 %3, i64 8)
  %5 = add i64 %2, 7
  %6 = and i64 %5, -8
  %7 = add i64 %6, 24
  %8 = load ptr, ptr %1, align 8, !tbaa !16
  %9 = getelementptr inbounds nuw i8, ptr %8, i64 16
  %10 = load ptr, ptr %9, align 8
  %11 = tail call noundef nonnull ptr %10(ptr noundef nonnull align 8 dereferenceable(8) %1, i64 noundef %7, i64 noundef %spec.store.select)
  call void @llvm.assume(i1 true) [ "align"(ptr %11, i64 %spec.store.select) ]
  %12 = getelementptr inbounds nuw i8, ptr %11, i64 %7
  %13 = getelementptr inbounds i8, ptr %11, i64 %6
  %14 = load ptr, ptr %0, align 8, !tbaa !4
  store ptr %14, ptr %13, align 8, !tbaa !10
  %15 = getelementptr inbounds i8, ptr %12, i64 -16
  store ptr %11, ptr %15, align 8, !tbaa !14
  %16 = getelementptr inbounds nuw i8, ptr %13, i64 16
  store i64 %spec.store.select, ptr %16, align 8, !tbaa !15
  store ptr %13, ptr %0, align 8, !tbaa !4
  ret ptr %11
}